target datalayout = "e-m:e-p270:32:32-p271:32:32-p272:64:64-i64:64-i128:128-f80:128-n8:16:32:64-S128"
target triple = "x86_64-pc-linux-gnu"

%struct.GinScanOpaqueData = type { ptr, %struct.GinState, ptr, i32, ptr, i32, i32, ptr, i8 }
%struct.GinState = type { ptr, i8, ptr, [32 x ptr], [32 x %struct.FmgrInfo], [32 x %struct.FmgrInfo], [32 x %struct.FmgrInfo], [32 x %struct.FmgrInfo], [32 x %struct.FmgrInfo], [32 x %struct.FmgrInfo], [32 x i8], [32 x i32] }
%struct.FmgrInfo = type { ptr, i32, i16, i8, i8, i8, ptr, ptr, ptr }
%struct.IndexScanDescData = type { ptr, ptr, ptr, i32, i32, ptr, ptr, i8, i8, i8, i8, i8, ptr, ptr, ptr, ptr, ptr, %struct.ItemPointerData, i8, ptr, i8, ptr, ptr, i8, ptr }
%struct.ItemPointerData = type { %struct.BlockIdData, i16 }
%struct.BlockIdData = type { i16, i16 }

@CurrentMemoryContext = external global ptr, align 8
@.str = private unnamed_addr constant [27 x i8] c"Gin scan temporary context\00", align 1
@.str.1 = private unnamed_addr constant [21 x i8] c"Gin scan key context\00", align 1

; Function Attrs: nounwind uwtable
define dso_local ptr @ginbeginscan(ptr noundef %0, i32 noundef %1, i32 noundef %2) #0 {
  %4 = alloca ptr, align 8
  %5 = alloca i32, align 4
  %6 = alloca i32, align 4
  %7 = alloca ptr, align 8
  %8 = alloca ptr, align 8
  %9 = alloca i32, align 4
  %10 = alloca i32, align 4
  store ptr %0, ptr %4, align 8
  store i32 %1, ptr %5, align 4
  store i32 %2, ptr %6, align 4
  call void @llvm.lifetime.start.p0(i64 8, ptr %7) #8
  call void @llvm.lifetime.start.p0(i64 8, ptr %8) #8
  %11 = load ptr, ptr %4, align 8
  %12 = load i32, ptr %5, align 4
  %13 = load i32, ptr %6, align 4
  %14 = call ptr @RelationGetIndexScan(ptr noundef %11, i32 noundef %12, i32 noundef %13)
  store ptr %14, ptr %7, align 8
  %15 = call ptr @palloc(i64 noundef 9712)
  store ptr %15, ptr %8, align 8
  %16 = load ptr, ptr %8, align 8
  %17 = getelementptr inbounds nuw %struct.GinScanOpaqueData, ptr %16, i32 0, i32 2
  store ptr null, ptr %17, align 8
  %18 = load ptr, ptr %8, align 8
  %19 = getelementptr inbounds nuw %struct.GinScanOpaqueData, ptr %18, i32 0, i32 3
  store i32 0, ptr %19, align 8
  br label %20

20:                                               ; preds = %3
  br label %21

21:                                               ; preds = %20
  br label %22

22:                                               ; preds = %21
  store i32 1, ptr %9, align 4
  %23 = load ptr, ptr @CurrentMemoryContext, align 8
  %24 = call ptr @AllocSetContextCreateInternal(ptr noundef %23, ptr noundef @.str, i64 noundef 0, i64 noundef 8192, i64 noundef 8388608)
  %25 = load ptr, ptr %8, align 8
  %26 = getelementptr inbounds nuw %struct.GinScanOpaqueData, ptr %25, i32 0, i32 0
  store ptr %24, ptr %26, align 8
  br label %27

27:                                               ; preds = %22
  br label %28

28:                                               ; preds = %27
  br label %29

29:                                               ; preds = %28
  store i32 1, ptr %10, align 4
  %30 = load ptr, ptr @CurrentMemoryContext, align 8
  %31 = call ptr @AllocSetContextCreateInternal(ptr noundef %30, ptr noundef @.str.1, i64 noundef 0, i64 noundef 8192, i64 noundef 8388608)
  %32 = load ptr, ptr %8, align 8
  %33 = getelementptr inbounds nuw %struct.GinScanOpaqueData, ptr %32, i32 0, i32 7
  store ptr %31, ptr %33, align 8
  %34 = load ptr, ptr %8, align 8
  %35 = getelementptr inbounds nuw %struct.GinScanOpaqueData, ptr %34, i32 0, i32 1
  %36 = load ptr, ptr %7, align 8
  %37 = getelementptr inbounds nuw %struct.IndexScanDescData, ptr %36, i32 0, i32 1
  %38 = load ptr, ptr %37, align 8
  call void @initGinState(ptr noundef %35, ptr noundef %38)
  %39 = load ptr, ptr %8, align 8
  %40 = load ptr, ptr %7, align 8
  %41 = getelementptr inbounds nuw %struct.IndexScanDescData, ptr %40, i32 0, i32 12
  store ptr %39, ptr %41, align 8
  %42 = load ptr, ptr %7, align 8
  call void @llvm.lifetime.end.p0(i64 8, ptr %8) #8
  call void @llvm.lifetime.end.p0(i64 8, ptr %7) #8
  ret ptr %42
}