; Function Attrs: nounwind uwtable
define dso_local ptr @ginbeginscan(ptr noundef %0, i32 noundef %1, i32 noundef %2) local_unnamed_addr #0 {
  %4 = tail call ptr @RelationGetIndexScan(ptr noundef %0, i32 noundef %1, i32 noundef %2) #7
  %5 = tail call ptr @palloc(i64 noundef 9712) #7
  %6 = getelementptr inbounds nuw i8, ptr %5, i64 9664
  store ptr null, ptr %6, align 8
  %7 = getelementptr inbounds nuw i8, ptr %5, i64 9672
  store i32 0, ptr %7, align 8
  %8 = load ptr, ptr @CurrentMemoryContext, align 8
  %9 = tail call ptr @AllocSetContextCreateInternal(ptr noundef %8, ptr noundef nonnull @.str, i64 noundef 0, i64 noundef 8192, i64 noundef 8388608) #7
  store ptr %9, ptr %5, align 8
  %10 = load ptr, ptr @CurrentMemoryContext, align 8
  %11 = tail call ptr @AllocSetContextCreateInternal(ptr noundef %10, ptr noundef nonnull @.str.1, i64 noundef 0, i64 noundef 8192, i64 noundef 8388608) #7
  %12 = getelementptr inbounds nuw i8, ptr %5, i64 9696
  store ptr %11, ptr %12, align 8
  %13 = getelementptr inbounds nuw i8, ptr %5, i64 8
  %14 = getelementptr inbounds nuw i8, ptr %4, i64 8
  %15 = load ptr, ptr %14, align 8
  tail call void @initGinState(ptr noundef nonnull %13, ptr noundef %15) #7
  %16 = getelementptr inbounds nuw i8, ptr %4, i64 56
  store ptr %5, ptr %16, align 8
  ret ptr %4
}